; Function Attrs: nounwind uwtable
define range(i32 -2147483647, -2147483648) i32 @Gia_MuxStructDump(ptr noundef %0, i32 noundef %1, ptr noundef initializes((4, 8)) %2, i32 noundef %3, i32 noundef %4) local_unnamed_addr #0 {
  %6 = getelementptr i8, ptr %0, i64 32
  %.val.i = load ptr, ptr %6, align 8
  %7 = sext i32 %1 to i64
  %8 = getelementptr inbounds %struct.Gia_Obj_t_, ptr %.val.i, i64 %7
  %9 = ptrtoint ptr %8 to i64
  %.val3.i.i = load i64, ptr %8, align 4
  %10 = trunc i64 %.val3.i.i to i32
  %11 = and i32 %10, 536870911
  %12 = sub nsw i32 %1, %11
  %13 = tail call i32 @Gia_MuxDeref_rec(ptr noundef %0, i32 noundef %12)
  %.val11.i = load ptr, ptr %6, align 8
  %14 = ptrtoint ptr %.val11.i to i64
  %15 = sub i64 %9, %14
  %16 = sdiv exact i64 %15, 12
  %17 = trunc i64 %16 to i32
  %.val3.i12.i = load i64, ptr %8, align 4
  %18 = lshr i64 %.val3.i12.i, 32
  %19 = trunc nuw i64 %18 to i32
  %20 = and i32 %19, 536870911
  %21 = sub nsw i32 %17, %20
  %22 = tail call i32 @Gia_MuxDeref_rec(ptr noundef %0, i32 noundef %21)
  %23 = getelementptr inbounds nuw i8, ptr %0, i64 40
  %24 = load ptr, ptr %23, align 8
  %.not.i.i = icmp eq ptr %24, null
  br i1 %.not.i.i, label %Gia_MuxDeref.exit, label %25

25:                                               ; preds = %5
  %.val8.i.i = load ptr, ptr %6, align 8
  %26 = ptrtoint ptr %.val8.i.i to i64
  %27 = sub i64 %9, %26
  %28 = sdiv exact i64 %27, 12
  %sext.i.i = shl i64 %28, 32
  %29 = ashr exact i64 %sext.i.i, 30
  %30 = getelementptr inbounds i8, ptr %24, i64 %29
  %31 = load i32, ptr %30, align 4
  %.not7.i.i = icmp eq i32 %31, 0
  %32 = ashr i32 %31, 1
  %spec.select.i.i = select i1 %.not7.i.i, i32 -1, i32 %32
  br label %Gia_MuxDeref.exit

Gia_MuxDeref.exit:                                ; preds = %5, %25
  %33 = phi i32 [ -1, %5 ], [ %spec.select.i.i, %25 ]
  %34 = tail call i32 @Gia_MuxDeref_rec(ptr noundef nonnull %0, i32 noundef %33)
  %35 = add i32 %13, 1
  %36 = add i32 %35, %22
  %37 = add i32 %36, %34
  %38 = getelementptr inbounds nuw i8, ptr %2, i64 4
  store i32 0, ptr %38, align 4
  tail call fastcc void @Vec_StrPrintNumStar(ptr noundef %2, i32 noundef %37, i32 noundef %3)
  tail call void @Gia_MuxStructDump_rec(ptr noundef nonnull %0, i32 noundef %1, i32 noundef 1, ptr noundef %2, i32 noundef %4)
  %39 = load i32, ptr %38, align 4
  %40 = load i32, ptr %2, align 8
  %41 = icmp eq i32 %39, %40
  br i1 %41, label %42, label %.Vec_StrGrow.exit10_crit_edge.i

.Vec_StrGrow.exit10_crit_edge.i:                  ; preds = %Gia_MuxDeref.exit
  %.phi.trans.insert.i = getelementptr inbounds nuw i8, ptr %2, i64 8
  %.pre.i = load ptr, ptr %.phi.trans.insert.i, align 8
  br label %Vec_StrPush.exit

42:                                               ; preds = %Gia_MuxDeref.exit
  %43 = icmp slt i32 %39, 16
  br i1 %43, label %44, label %52

44:                                               ; preds = %42
  %45 = getelementptr inbounds nuw i8, ptr %2, i64 8
  %46 = load ptr, ptr %45, align 8
  %.not9.i.i = icmp eq ptr %46, null
  br i1 %.not9.i.i, label %49, label %47

47:                                               ; preds = %44
  %48 = tail call dereferenceable_or_null(16) ptr @realloc(ptr noundef nonnull %46, i64 noundef 16) #30
  br label %Vec_StrGrow.exit.i

49:                                               ; preds = %44
  %50 = tail call noalias dereferenceable_or_null(16) ptr @malloc(i64 noundef 16) #28
  br label %Vec_StrGrow.exit.i

Vec_StrGrow.exit.i:                               ; preds = %49, %47
  %51 = phi ptr [ %48, %47 ], [ %50, %49 ]
  store ptr %51, ptr %45, align 8
  store i32 16, ptr %2, align 8
  br label %Vec_StrPush.exit

52:                                               ; preds = %42
  %53 = shl nuw nsw i32 %39, 1
  %54 = getelementptr inbounds nuw i8, ptr %2, i64 8
  %55 = load ptr, ptr %54, align 8
  %.not9.i9.i = icmp eq ptr %55, null
  %56 = zext nneg i32 %53 to i64
  br i1 %.not9.i9.i, label %59, label %57

57:                                               ; preds = %52
  %58 = tail call ptr @realloc(ptr noundef nonnull %55, i64 noundef %56) #30
  br label %61

59:                                               ; preds = %52
  %60 = tail call noalias ptr @malloc(i64 noundef %56) #28
  br label %61

61:                                               ; preds = %59, %57
  %62 = phi ptr [ %58, %57 ], [ %60, %59 ]
  store ptr %62, ptr %54, align 8
  store i32 %53, ptr %2, align 8
  br label %Vec_StrPush.exit

Vec_StrPush.exit:                                 ; preds = %.Vec_StrGrow.exit10_crit_edge.i, %Vec_StrGrow.exit.i, %61
  %63 = phi ptr [ %.pre.i, %.Vec_StrGrow.exit10_crit_edge.i ], [ %62, %61 ], [ %51, %Vec_StrGrow.exit.i ]
  %64 = load i32, ptr %38, align 4
  %65 = add nsw i32 %64, 1
  store i32 %65, ptr %38, align 4
  %66 = sext i32 %64 to i64
  %67 = getelementptr inbounds i8, ptr %63, i64 %66
  store i8 0, ptr %67, align 1
  %.val.i13 = load ptr, ptr %6, align 8
  %68 = getelementptr inbounds %struct.Gia_Obj_t_, ptr %.val.i13, i64 %7
  %69 = ptrtoint ptr %68 to i64
  %.val3.i.i14 = load i64, ptr %68, align 4
  %70 = trunc i64 %.val3.i.i14 to i32
  %71 = and i32 %70, 536870911
  %72 = sub nsw i32 %1, %71
  %73 = tail call i32 @Gia_MuxRef_rec(ptr noundef nonnull %0, i32 noundef %72)
  %.val11.i15 = load ptr, ptr %6, align 8
  %74 = ptrtoint ptr %.val11.i15 to i64
  %75 = sub i64 %69, %74
  %76 = sdiv exact i64 %75, 12
  %77 = trunc i64 %76 to i32
  %.val3.i12.i16 = load i64, ptr %68, align 4
  %78 = lshr i64 %.val3.i12.i16, 32
  %79 = trunc nuw i64 %78 to i32
  %80 = and i32 %79, 536870911
  %81 = sub nsw i32 %77, %80
  %82 = tail call i32 @Gia_MuxRef_rec(ptr noundef nonnull %0, i32 noundef %81)
  %83 = load ptr, ptr %23, align 8
  %.not.i.i17 = icmp eq ptr %83, null
  br i1 %.not.i.i17, label %Gia_MuxRef.exit, label %84

84:                                               ; preds = %Vec_StrPush.exit
  %.val8.i.i18 = load ptr, ptr %6, align 8
  %85 = ptrtoint ptr %.val8.i.i18 to i64
  %86 = sub i64 %69, %85
  %87 = sdiv exact i64 %86, 12
  %sext.i.i19 = shl i64 %87, 32
  %88 = ashr exact i64 %sext.i.i19, 30
  %89 = getelementptr inbounds i8, ptr %83, i64 %88
  %90 = load i32, ptr %89, align 4
  %.not7.i.i20 = icmp eq i32 %90, 0
  %91 = ashr i32 %90, 1
  %spec.select.i.i21 = select i1 %.not7.i.i20, i32 -1, i32 %91
  br label %Gia_MuxRef.exit

Gia_MuxRef.exit:                                  ; preds = %Vec_StrPush.exit, %84
  %92 = phi i32 [ -1, %Vec_StrPush.exit ], [ %spec.select.i.i21, %84 ]
  %93 = tail call i32 @Gia_MuxRef_rec(ptr noundef nonnull %0, i32 noundef %92)
  ret i32 %37
}